; Function Attrs: mustprogress nounwind uwtable
define dso_local { i64, i8 } @_ZN4llvm9DWARFUnit16getLoclistOffsetEj(ptr nocapture noundef nonnull readonly align 8 dereferenceable(448) %0, i32 noundef %1) local_unnamed_addr #0 align 2 {
  %3 = alloca i64, align 8
  %4 = alloca %"class.llvm::DataExtractor", align 8
  %5 = alloca %"class.llvm::DataExtractor", align 8
  %6 = getelementptr inbounds nuw i8, ptr %0, i64 136
  %7 = load ptr, ptr %6, align 8
  %8 = getelementptr inbounds nuw i8, ptr %7, i64 8
  call void @llvm.memcpy.p0.p0.i64(ptr noundef nonnull align 8 dereferenceable(24) %5, ptr noundef nonnull align 8 dereferenceable(24) %8, i64 24, i1 false)
  %9 = getelementptr inbounds nuw i8, ptr %0, i64 128
  %10 = load i64, ptr %9, align 8
  %11 = getelementptr inbounds i8, ptr %0, i64 35
  %12 = load i8, ptr %11, align 1
  call void @llvm.lifetime.start.p0(i64 24, ptr nonnull %4)
  call void @llvm.lifetime.start.p0(i64 8, ptr nonnull %3)
  call void @llvm.memcpy.p0.p0.i64(ptr noundef nonnull align 8 dereferenceable(24) %4, ptr noundef nonnull align 8 dereferenceable(24) %5, i64 24, i1 false)
  %13 = icmp eq i8 %12, 1
  %14 = select i1 %13, i32 8, i32 4
  %15 = select i1 %13, i32 3, i32 2
  %16 = shl i32 %1, %15
  %17 = zext i32 %16 to i64
  %18 = add i64 %10, %17
  store i64 %18, ptr %3, align 8
  %19 = call noundef i64 @_ZNK4llvm13DataExtractor11getUnsignedEPmjPNS_5ErrorE(ptr noundef nonnull align 8 dereferenceable(18) %4, ptr noundef nonnull %3, i32 noundef %14, ptr noundef null) #22
  call void @llvm.lifetime.end.p0(i64 24, ptr nonnull %4)
  call void @llvm.lifetime.end.p0(i64 8, ptr nonnull %3)
  %20 = load i64, ptr %9, align 8
  %21 = add i64 %20, %19
  %.fca.0.insert = insertvalue { i64, i8 } poison, i64 %21, 0
  %.fca.1.insert = insertvalue { i64, i8 } %.fca.0.insert, i8 1, 1
  ret { i64, i8 } %.fca.1.insert
}